ccopy_reg
_reconstructor
p0
(crequests.models
Response
p1
c__builtin__
object
p2
Ntp3
Rp4
(dp5
S'cookies'
p6
g0
(crequests.cookies
RequestsCookieJar
p7
g2
Ntp8
Rp9
(dp10
S'_now'
p11
I1435539166
sS'_policy'
p12
(icookielib
DefaultCookiePolicy
p13
(dp14
S'strict_rfc2965_unverifiable'
p15
I01
sS'strict_ns_domain'
p16
I0
sS'_allowed_domains'
p17
NsS'rfc2109_as_netscape'
p18
NsS'rfc2965'
p19
I00
sS'strict_domain'
p20
I00
sg11
I1435539166
sS'strict_ns_set_path'
p21
I00
sS'strict_ns_unverifiable'
p22
I00
sS'strict_ns_set_initial_dollar'
p23
I00
sS'hide_cookie2'
p24
I00
sS'_blocked_domains'
p25
(tsS'netscape'
p26
I01
sbsS'_cookies'
p27
(dp28
sbsS'_content'
p29
S'{\n    "buildings" : {\n        "/operahouse" : { "description" : "A source of cultural influence for your space station.", "wiki" : "http://community.lacunaexpanse.com/wiki/opera-house" },\n        "/artmuseum" : { "description" : "A source of cultural influence for your space station.", "wiki" : "http://community.lacunaexpanse.com/wiki/art-museum" },\n        "/culinaryinstitute" : { "description" : "A source of cultural influence for your space station.", "wiki" : "http://community.lacunaexpanse.com/wiki/culinary-institute" },\n        "/stationcommand" : { "description" : "The internal operations of a space station. Controls how big the station can be expanded.", "wiki" : "http://community.lacunaexpanse.com/wiki/station-command-center" },\n        "/parliament" : { "description" : "The central government for the star systems that are controlled by a space station. Laws for the jurisdiction are made here.", "wiki" : "http://community.lacunaexpanse.com/wiki/parliament" },\n        "/policestation" : { "description" : "The police station serves much the same purpose as a security ministry, but on a Space Station.", "wiki" : "http://community.lacunaexpanse.com/wiki/police-station" },\n        "/warehouse" : { "description" : "Resource storage for a space station.", "wiki" : "http://community.lacunaexpanse.com/wiki/warehouse" },\n        "/ibs" : { "description" : "A means of spreading the culture and influence of a space station\'s government.", "wiki" : "http://community.lacunaexpanse.com/wiki/interstellar-broadcast-system" },\n        "/ssla" : { "description" : "Allows the construction of Space Station Lab modules. Requires four plots, and this is the top left corner of the building.", "wiki" : "http://community.lacunaexpanse.com/wiki/space-station-lab" },\n        "/sslb" : { "description" : "Infrastructure required to support Space Station Lab (A).", "wiki" : "http://community.lacunaexpanse.com/wiki/space-station-lab" },\n        "/sslc" : { "description" : "Infrastructure required to support Space Station Lab (A).", "wiki" : "http://community.lacunaexpanse.com/wiki/space-station-lab" },\n        "/ssld" : { "description" : "Infrastructure required to support Space Station Lab (A).", "wiki" : "http://community.lacunaexpanse.com/wiki/space-station-lab" },\n        "/distributioncenter" : { "description" : "A tier two resource storage building.  Allows keeping specific resources in reserve.", "wiki" : "http://community.lacunaexpanse.com/wiki/distribution-center" },\n        "/saw" : { "description" : "A railgun system used to protect your planet from enemy ships.", "wiki" : "http://community.lacunaexpanse.com/wiki/shield-against-weapons" },\n        "/atmosphericevaporator" : { "description" : "Produces water by condensing it from the air and soil.", "wiki" : "http://community.lacunaexpanse.com/wiki/atmospheric-evaporator" },\n        "/greatballofjunk" : { "description" : "Eliminate waste and give your citizens something to be proud of at the same time.", "wiki" : "http://community.lacunaexpanse.com/wiki/great-ball-of-junk" },\n        "/pyramidjunksculpture" : { "description" : "Eliminate waste and give your citizens something to be proud of at the same time.", "wiki" : "http://community.lacunaexpanse.com/wiki/pyramid-junk-sculpture" },\n        "/spacejunkpark" : { "description" : "Eliminate waste and give your citizens something to be proud of at the same time.", "wiki" : "http://community.lacunaexpanse.com/wiki/space-junk-park" },\n        "/junkhengesculpture" : { "description" : "Eliminate waste and give your citizens something to be proud of at the same time.", "wiki" : "http://community.lacunaexpanse.com/wiki/junk-henge-sculpture" },\n        "/metaljunkarches" : { "description" : "Eliminate waste and give your citizens something to be proud of at the same time.", "wiki" : "http://community.lacunaexpanse.com/wiki/metal-junk-arches" },\n        "/deployedbleeder" : { "description" : "Converts planet\'s resources directly into waste.", "wiki" : "http://community.lacunaexpanse.com/wiki/bleeder" },\n        "/oracleofanid" : { "description" : "The all seeing Oracle can help detect enemy threats.", "wiki" : "http://community.lacunaexpanse.com/wiki/oracle-of-anid" },\n        "/themepark" : { "description" : "Produces happiness for your citizens through food and entertainment.", "wiki" : "http://community.lacunaexpanse.com/wiki/theme-park" },\n        "/geneticslab" : { "description" : "Allows genetic experiements on captured spies to improve your species.", "wiki" : "http://community.lacunaexpanse.com/wiki/genetics-lab" },\n        "/massadshenge" : { "description" : "An ancient observatory.", "wiki" : "http://community.lacunaexpanse.com/wiki/massad-s-henge" },\n        "/gratchsgauntlet" : { "description" : "The anti-espionage system of the Great Race.", "wiki" : "http://community.lacunaexpanse.com/wiki/gratch-s-gauntlet" },\n        "/kasternskeep" : { "description" : "The place from which the Great Race commanded their armies.", "wiki" : "http://community.lacunaexpanse.com/wiki/kastern-s-keep" },\n        "/hallsofvrbansk" : { "description" : "The source of ancient wisdom.", "wiki" : "http://community.lacunaexpanse.com/wiki/halls-of-vrbansk" },\n        "/libraryofjith" : { "description" : "Where the Great Race kept records of their experiments.", "wiki" : "http://community.lacunaexpanse.com/wiki/library-of-jith" },\n        "/thedillonforge" : { "description" : "Where raw ore formed into glyphs and the glyph buildings were born.", "wiki" : "http://community.lacunaexpanse.com/wiki/the-dillon-forge" },\n        "/blackholegenerator" : { "description" : "An experimental singularity lab engineered by the Great Race.", "wiki" : "http://community.lacunaexpanse.com/wiki/black-hole-generator" },\n        "/supplypod" : { "description" : "Used to hold emergency supplies on a damaged colony or on a fledgling colony.", "wiki" : "http://community.lacunaexpanse.com/wiki/supply-pod" },\n        "/subspacesupplydepot" : { "description" : "Helps give a fledgling colony a kickstart.", "wiki" : "http://community.lacunaexpanse.com/wiki/subspace-supply-depot" },\n        "/pantheonofhagness" : { "description" : "Increases the number of available plots on your planet.", "wiki" : "http://community.lacunaexpanse.com/wiki/pantheon-of-hagness" },\n        "/crashedshipsite" : { "description" : "Harvest technology from a crashed ship to make your own ships better.", "wiki" : "http://community.lacunaexpanse.com/wiki/crashed-ship-site" },\n        "/citadelofknope" : { "description" : "Defends your planet from incoming hostile ships by absorbing the damage onto itself.", "wiki" : "http://community.lacunaexpanse.com/wiki/citadel-of-knope" },\n        "/ravine" : { "description" : "A natural place to store waste.", "wiki" : "http://community.lacunaexpanse.com/wiki/ravine" },\n        "/fissure" : { "description" : "The first sign of a dying planet.", "wiki" : "http://community.lacunaexpanse.com/wiki/fissure" },\n        "/amalgusmeadow" : { "description" : "A wild meadow filled with wild amalgus beans.", "wiki" : "http://community.lacunaexpanse.com/wiki/amalgus-meadow" },\n        "/dentonbrambles" : { "description" : "A thorny patch of brambles, who\'s roots happen to be the delicious denton roots.", "wiki" : "http://community.lacunaexpanse.com/wiki/denton-brambles" },\n        "/malcudfield" : { "description" : "A natural source of food.", "wiki" : "http://community.lacunaexpanse.com/wiki/malcud-field" },\n        "/lapisforest" : { "description" : "A natural source of food.", "wiki" : "http://community.lacunaexpanse.com/wiki/lapis-forest" },\n        "/algaepond" : { "description" : "A natural source of food.", "wiki" : "http://community.lacunaexpanse.com/wiki/algae-pond" },\n        "/beeldebannest" : { "description" : "A natural source of food.", "wiki" : "http://community.lacunaexpanse.com/wiki/beeldeban-nest" },\n        "/geothermalvent" : { "description" : "A natural source of energy from the planet\'s core.", "wiki" : "http://community.lacunaexpanse.com/wiki/geo-thermal-vent" },\n        "/naturalspring" : { "description" : "A natural source of water from the planet.", "wiki" : "http://community.lacunaexpanse.com/wiki/natural-spring" },\n        "/interdimensionalrift" : { "description" : "The Great Race somehow learned a technique to create a pocket of subspace with a door into our world. This allowed them to store lots of resources, without taking up much space.", "wiki" : "http://community.lacunaexpanse.com/wiki/interdimensional-rift" },\n        "/templeofthedrajilites" : { "description" : "The Temple of a group of star gazers from the Great Race. It was their belief that through ritual they could see other worlds.", "wiki" : "http://community.lacunaexpanse.com/wiki/temple-of-the-drajilites" },\n        "/sand" : { "description" : "Decoration for your planet.", "wiki" : "http://community.lacunaexpanse.com/wiki/patch-of-sand" },\n        "/grove" : { "description" : "Decoration for your planet.", "wiki" : "http://community.lacunaexpanse.com/wiki/grove-of-trees" },\n        "/lagoon" : { "description" : "Decoration for your planet.", "wiki" : "http://community.lacunaexpanse.com/wiki/lagoon" },\n        "/kalavianruins" : { "description" : "Attracts tourists and creates a sense of wonder for locals, increasing the happiness of your planet.", "wiki" : "http://community.lacunaexpanse.com/wiki/kalavian-ruins" },\n        "/essentiavein" : { "description" : "Produces trace amounts of Essentia.", "wiki" : "http://community.lacunaexpanse.com/wiki/essentia-vein" },\n        "/volcano" : { "description" : "A natural source of ore.", "wiki" : "http://community.lacunaexpanse.com/wiki/volcano" },\n        "/luxuryhousing" : { "description" : "Produces more happiness than the Entertainment District, but costs more too.", "wiki" : "http://community.lacunaexpanse.com/wiki/luxury-housing" },\n        "/pilottraining" : { "description" : "Increases speed and stealth of new piloted ships, and enables building Fighters.", "wiki" : "http://community.lacunaexpanse.com/wiki/pilot-training-facility" },\n        "/missioncommand" : { "description" : "Lists available missions in your zone. You can view one mission per level of the Mission Command.", "wiki" : "http://community.lacunaexpanse.com/wiki/mission-command" },\n        "/cloakinglab" : { "description" : "Increases the stealth of new ships.", "wiki" : "http://community.lacunaexpanse.com/wiki/cloaking-lab" },\n        "/munitionslab" : { "description" : "Enables you to build the Detonator, Snark, and Seeker robotic war ships.", "wiki" : "http://community.lacunaexpanse.com/wiki/munitions-lab" },\n        "/crater" : { "description" : "Decoration for your planet.", "wiki" : "http://community.lacunaexpanse.com/wiki/crater" },\n        "/rockyoutcrop" : { "description" : "Decoration for your planet.", "wiki" : "http://community.lacunaexpanse.com/wiki/rocky-outcropping" },\n        "/lake" : { "description" : "Decoration for your planet.", "wiki" : "http://community.lacunaexpanse.com/wiki/lake" },\n        "/beach1" : { "description" : "Decoration for your planet. Use with other beach tiles to create a beach front.", "wiki" : "http://community.lacunaexpanse.com/wiki/beach-1" },\n        "/beach2" : { "description" : "Decoration for your planet. Use with other beach tiles to create a beach front.", "wiki" : "http://community.lacunaexpanse.com/wiki/beach-2" },\n        "/beach3" : { "description" : "Decoration for your planet. Use with other beach tiles to create a beach front.", "wiki" : "http://community.lacunaexpanse.com/wiki/beach-3" },\n        "/beach4" : { "description" : "Decoration for your planet. Use with other beach tiles to create a beach front.", "wiki" : "http://community.lacunaexpanse.com/wiki/beach-4" },\n        "/beach5" : { "description" : "Decoration for your planet. Use with other beach tiles to create a beach front.", "wiki" : "http://community.lacunaexpanse.com/wiki/beach-5" },\n        "/beach6" : { "description" : "Decoration for your planet. Use with other beach tiles to create a beach front.", "wiki" : "http://community.lacunaexpanse.com/wiki/beach-6" },\n        "/beach7" : { "description" : "Decoration for your planet. Use with other beach tiles to create a beach front.", "wiki" : "http://community.lacunaexpanse.com/wiki/beach-7" },\n        "/beach8" : { "description" : "Decoration for your planet. Use with other beach tiles to create a beach front.", "wiki" : "http://community.lacunaexpanse.com/wiki/beach-8" },\n        "/beach9" : { "description" : "Decoration for your planet. Use with other beach tiles to create a beach front.", "wiki" : "http://community.lacunaexpanse.com/wiki/beach-9" },\n        "/beach10" : { "description" : "Decoration for your planet. Use with other beach tiles to create a beach front.", "wiki" : "http://community.lacunaexpanse.com/wiki/beach-10" },\n        "/beach11" : { "description" : "Decoration for your planet. Use with other beach tiles to create a beach front.", "wiki" : "http://community.lacunaexpanse.com/wiki/beach-11" },\n        "/beach12" : { "description" : "Decoration for your planet. Use with other beach tiles to create a beach front.", "wiki" : "http://community.lacunaexpanse.com/wiki/beach-12" },\n        "/beach13" : { "description" : "Decoration for your planet. Use with other beach tiles to create a beach front.", "wiki" : "http://community.lacunaexpanse.com/wiki/beach-13" },\n        "/algae" : { "description" : "Produces algae to be used as food by your empire.  It also produces a small amount of energy and can be built in any orbit.  The higher the level of the cropper the more food and energy it produces.", "wiki" : "http://community.lacunaexpanse.com/wiki/algae-cropper" },\n        "/apple" : { "description" : "Allows you to grow apples to feed your empire.  You can only grow apples in orbit 3 (its goldilox zone).  Food production increases for every level of the orchard.  All plants need a source of phosphorus to photosynthesize their food. Therefore you need a good source of gypsum, sulfur, or monazite for plants to thrive.", "wiki" : "http://community.lacunaexpanse.com/wiki/apple-orchard" },\n        "/archaeology" : { "description" : "Allows you to search through specific types of ore to find Glyphs.", "wiki" : "http://community.lacunaexpanse.com/wiki/archaeology-ministry" },\n        "/bean" : { "description" : "Allows you to grow beans to be used as food by your empire.  You can only grow beans in orbit 4 (its goldilox zone).  The higher the level of the plantation the more food it produces.  All plants need a source of phosphorus to photosynthesize their food. Therefore you need a good source of gypsum, sulfur, or monazite for plants to thrive.", "wiki" : "http://community.lacunaexpanse.com/wiki/amalgus-bean-plantation" },\n        "/beeldeban" : { "description" : "Allows the raising of beeldeban to be used as food for your empire. The higher the building level the more food is produced.", "wiki" : "http://community.lacunaexpanse.com/wiki/beeldeban-herder" },\n        "/bread" : { "description" : "Converts wheat from the Wheat Farm at a minimal loss into bread to be used as food by your empire.  The conversion rate increases with every level of the Bakery.", "wiki" : "http://community.lacunaexpanse.com/wiki/bakery" },\n        "/burger" : { "description" : "Converts fungus from the Malcud Fungus Farm and produces burgers, at a small loss, to food.  The higher the building level the more food is converted.", "wiki" : "http://community.lacunaexpanse.com/wiki/burger-packer" },\n        "/capitol" : { "description" : "Provides protection from Insurrection, and produces happiness.", "wiki" : "http://community.lacunaexpanse.com/wiki/capitol" },\n        "/cheese" : { "description" : "Converts milk from the Dairy Farm into cheese at a small loss to be used as food.  The higher the building level the more food is converted.", "wiki" : "http://community.lacunaexpanse.com/wiki/cheese-maker" },\n        "/chip" : { "description" : "Converts roots from the Denton Root Farm and turns it into root chips as food for your empire at a minimal loss.  The higher the level of the Chip Frier the more food it converts.", "wiki" : "http://community.lacunaexpanse.com/wiki/denton-root-chip-frier" },\n        "/cider" : { "description" : "Allows you to convert apples from the Apple Orchard into cider with a small amount of loss.  The amount of apples converted into cider increases with the level of the building.", "wiki" : "http://community.lacunaexpanse.com/wiki/apple-cider-bottler" },\n        "/corn" : { "description" : "Produces corn to be used as food by your empire.  The corn plantation can only be used in orbits 2 and 3.  The higher the level of the plantation the more food is produced.  All plants need a source of phosphorus to photosynthesize their food. Therefore you need a good source of gypsum, sulfur, or monazite for plants to thrive.", "wiki" : "http://community.lacunaexpanse.com/wiki/corn-plantation" },\n        "/cornmeal" : { "description" : "Converts corn from the Corn Plantation into corn meal at a small loss to be used as food.  The higher the building level the more food is converted.", "wiki" : "http://community.lacunaexpanse.com/wiki/corn-meal-grinder" },\n        "/dairy" : { "description" : "Allows you to produce food via dairy cattle.  It can only be used in orbit 3 (its goldilox zone).  The higher the level of farm the more food it produces. Cows require certain minerals in their diet in order to produce lots of high quality milk. Therefore in order to have a dairy farm you\'re going to need a good supply of trona.", "wiki" : "http://community.lacunaexpanse.com/wiki/dairy-farm" },\n        "/denton" : { "description" : "Produces roots to be used as food by your empire.  The roots only grow in orbits 5 and 6 (its goldilox zone).  The higher the level of the patch the more food it produces.  All plants need a source of phosphorus to photosynthesize their food. Therefore you need a good source of gypsum, sulfur, or monazite for plants to thrive.", "wiki" : "http://community.lacunaexpanse.com/wiki/denton-root-patch" },\n        "/development" : { "description" : "Allows you to monitor your build queue and subsidize the construction of buildings through the use of Essentia. The higher the level of the building the more buildings you can have in your queue, however the queue still builds in series not in parallel. The number of projects that can be placed in the queue is the level of the ministry plus 1. ", "wiki" : "http://community.lacunaexpanse.com/wiki/development-ministry" },\n        "/embassy" : { "description" : "Allows the formation of alliances. It is also a prerequisite to building the Space Station. Each level of the Embassy allows 2 more members to join the alliance. Each level of the embassy allows 1 stash exchange per day, and 10,000 more resources per exchange.", "wiki" : "http://community.lacunaexpanse.com/wiki/embassy" },\n        "/energyreserve" : { "description" : "Stores your energy with a minimal amount of loss.  Increasing the level of the building raises the amount of energy stored.", "wiki" : "http://community.lacunaexpanse.com/wiki/energy-reserve" },\n        "/entertainment" : { "description" : "Increases your empire\'s happiness by providing a place for your citizens to unwind through activities such as casinos, restaurants, clubs and other amusements.  The higher the building level the more happiness is produced. It can also be a source of essentia through its lottery system.", "wiki" : "http://community.lacunaexpanse.com/wiki/entertainment-district" },\n        "/espionage" : { "description" : "Allows the construction of spy pods and spy shuttles at the shipyard.  It also allows better training of your spies.  The higher the building level, the more effective your spies will be applying their trade. ", "wiki" : "http://community.lacunaexpanse.com/wiki/espionage-ministry" },\n        "/foodreserve" : { "description" : "Stores your food with a minimal amount of spoilage.  It also gives you a report of the types of food you have stored.  Increasing the level of this building increases the amount of food that can be stored.", "wiki" : "http://community.lacunaexpanse.com/wiki/food-reserve" },\n        "/fission" : { "description" : "Produces energy by splitting atoms.  This way of producing energy is very efficient on an waste per energy produced ratio.  The higher the building level the more energy is produced. Splitting the atoms non-energenic particles doesn\'t produce much power, so you\'ll need radioactive ore to power your fission plant, such as uraninite or monazite.", "wiki" : "http://community.lacunaexpanse.com/wiki/fission-energy-plant" },\n        "/fusion" : { "description" : "Produces energy by fusing atoms together.  This type of energy is even more efficient than the Fission Energy Plant on a waste per energy produced ratio.  Requires a high level University to construct.  The higher the building level the more energy is produced. Unfortunately the fusion plant produces enormous amounts of heat as well which requires coolants such as molten lead or salt. Therefore you\'ll need a good supply of galena or halite to build one.", "wiki" : "http://community.lacunaexpanse.com/wiki/fusion-energy-plant" },\n        "/gasgiantlab" : { "description" : "Does research on the gas giant ship which deploys into a gas giant platform.  The gas giant platform allows settlement of a gas giant.  The higher the building level the higher the level of the platform deployed from the gas giant ship.", "wiki" : "http://community.lacunaexpanse.com/wiki/gas-giant-lab" },\n        "/gasgiantplatform" : { "description" : "Increases the available plots on a gas giant.", "wiki" : "http://community.lacunaexpanse.com/wiki/gas-giant-settlement-platform" },\n        "/geo" : { "description" : "Produces energy with a minimal amount of waste by using the planets own processes such as wind, waves, solar and geo thermal.  The higher the level of the building the more energy is produced.", "wiki" : "http://community.lacunaexpanse.com/wiki/geo-energy-plant" },\n        "/hydrocarbon" : { "description" : "Produces large amounts of energy at the cost of producing large amounts of waste by burning hydrocarbons.  It also uses significant amounts of ore in the production of this energy.  The higher the building level the more energy is produced.  Hydrocarbon energy is derived from burning hydrocarbons, so you\'ll need a good supply of kerogen, methane, or anthracite in order to power it.", "wiki" : "http://community.lacunaexpanse.com/wiki/hydrocarbon-energy-plant" },\n        "/intelligence" : { "description" : "Trains spies.  You may train 3 spies per level of this building.  You may only construct 1 Intelligence Ministry on a planet.", "wiki" : "http://community.lacunaexpanse.com/wiki/intelligence-ministry" },\n        "/inteltraining" : { "description" : "Trains spies in the ways of intelligence gathering. You may only construct 1 Intel Training Facility on a planet.", "wiki" : "http://community.lacunaexpanse.com/wiki/intel-training-facility" },\n        "/lapis" : { "description" : "Produces lapis to be used as food by your empire.  Lapis can only be grown in orbit 2 (its goldilox zone).  The higher the level of the orchard the more food it produces.  All plants need a source of phosphorus to photosynthesize their food. Therefore you need a good source of gypsum, sulfur, or monazite for plants to thrive.", "wiki" : "http://community.lacunaexpanse.com/wiki/lapis-orchard" },\n        "/malcud" : { "description" : "Produces fungus to be used as food by your empire.  The Farm also consumes a small amount of waste and can be built in any orbit.  The higher the level of the farm the more food is produced and waste consumed.", "wiki" : "http://community.lacunaexpanse.com/wiki/malcud-fungus-farm" },\n        "/mayhemtraining" : { "description" : "Trains spies in the art of destruction. You may only construct 1 Mayhem Training Facility on a planet.", "wiki" : "http://community.lacunaexpanse.com/wiki/mayhem-training-facility" },\n        "/mercenariesguild" : { "description" : "A black market for buying and selling well trained spies.", "wiki" : "http://community.lacunaexpanse.com/wiki/mercenaries-guild" },\n        "/mine" : { "description" : "Extracts mineral from your planet in the form of ore.  The amounts of each mineral extracted depends on the concentration and composition of the planet. The higher the level of the mine the more ore is extracted.", "wiki" : "http://community.lacunaexpanse.com/wiki/mine" },\n        "/miningministry" : { "description" : "Allows you to harvest resources from asteroids. Allows the construction of Mining Platform Ships. Every two levels allows an additional Mining Platform. Each level increases the output of all Mining Platforms controlled by the Ministry.", "wiki" : "http://community.lacunaexpanse.com/wiki/mining-ministry" },\n        "/network19" : { "description" : "Your empire\'s source for up to the minute news in your region of the Expanse.  Get updates on what other empire\'s are doing and what you\'d prefer they weren\'t doing.  The Network 19 feed can be manipulated through the use of of espionage and political policy.  Well informed people are happy people so the network also produces happiness.  The higher the building level the more of the expanse you can get news from and the more happiness is produced. ", "wiki" : "http://community.lacunaexpanse.com/wiki/network-19-affiliate" },\n        "/observatory" : { "description" : "Allows the construction of probes and colony ships at the shipyard.  It also provides a list of all your active probes and the stars they are observing.  A higher building level allows more probes to be constructed.", "wiki" : "http://community.lacunaexpanse.com/wiki/observatory" },\n        "/orerefinery" : { "description" : "Increases the amount of ore extracted from each terrestrial ore producing structure by purifying the ore and producing less waste.  The higher the refinery level the higher the purification process and even greater amounts of ore are extracted. The ore refinery requires sufficient amounts of either sulfur or fluorite being produced in order to process ore.", "wiki" : "http://community.lacunaexpanse.com/wiki/ore-refinery" },\n        "/orestorage" : { "description" : "Store the ore that is pulled from the Mine.  The higher the level of the building the more ore can be stored.", "wiki" : "http://community.lacunaexpanse.com/wiki/ore-storage-tanks" },\n        "/oversight" : { "description" : "Reduces the amount of time buildings take to upgrade through better project management. All buildings will be produced 3% faster per level of the Oversight Ministry.", "wiki" : "http://community.lacunaexpanse.com/wiki/oversight-ministry" },\n        "/pancake" : { "description" : "Converts potatoes from the Potato Plantation into pancakes at a minimal loss to be used as food by your empire.  The higher the level of the factory, the more food is converted.", "wiki" : "http://community.lacunaexpanse.com/wiki/pancake-factory" },\n        "/park" : { "description" : "A place for your people to gather and enjoy nature or hold large scale public events.  The Park allows you to throw parties for your citizens to increase their happiness.  The more varieties of foods you bring to the party the more happiness is produced.", "wiki" : "http://community.lacunaexpanse.com/wiki/park" },\n        "/pie" : { "description" : "Converts lapis from the Lapis Orchard into pies at minimal loss to be used as food by your empire.  The higher the level of the bakery, the more food is converted.", "wiki" : "http://community.lacunaexpanse.com/wiki/pie-bakery" },\n        "/planetarycommand" : { "description" : "Houses the central government for your empire.  This is your \\"flag in the ground\\" that lets everyone know you\'ve staked your claim to a planet. It provides some basic resources and and storage for those resources both of which increase with the level of this building.  The planetary command also provides some critical reports on your planetary activities such as total resource production and total resource storage for the planet it\'s constructed on.", "wiki" : "http://community.lacunaexpanse.com/wiki/planetary-command-center" },\n        "/politicstraining" : { "description" : "Trains spies in the dark art of social engineering. You may only construct 1 Politics Training Facility on a planet.", "wiki" : "http://community.lacunaexpanse.com/wiki/politics-training-facility" },\n        "/potato" : { "description" : "Allows you to grow potatoes to be used as food for you empire.  The patch can only be used in orbits 3 and 4 (its goldilox zone).  The higher the level of the patch the more food it produces.  All plants need a source of phosphorus to photosynthesize their food. Therefore you need a good source of gypsum, sulfur, or monazite for plants to thrive.", "wiki" : "http://community.lacunaexpanse.com/wiki/potato-patch" },\n        "/propulsion" : { "description" : "Allows your ships to move faster through space by way of upgraded engines.  The higher the building level the faster your ships move.  All ships originating from this planet are affected.  In order to produce high performance engines you\'ll need a good supply of structural minerals such as rutile, chromite, bauxite, magnetite, beryl, or goethite.", "wiki" : "http://community.lacunaexpanse.com/wiki/propulsion-system-factory" },\n        "/security" : { "description" : "Increases the effectiveness of your counter-spies and allows you to detect foreign spies.  The higher the building level the more training your counter-spies receive.  The building will be able to detect foreign spies with a level equal to or lower than the building.  It will also help detect incoming ships containing spies.", "wiki" : "http://community.lacunaexpanse.com/wiki/security-ministry" },\n        "/shake" : { "description" : "Converts the beeldeban that are harvested in the Beeldeban Herder into protein shakes, at a small loss, to be used as food.  The higher the level of the factory the more food is converted.", "wiki" : "http://community.lacunaexpanse.com/wiki/beeldeban-protein-shake-factory" },\n        "/shipyard" : { "description" : "Constructs ships. The types of ships that can be built in the Shipyard are dependent on some of the other buildings on your planet.  The higher the building level the faster ships are produced. In addition, you may queue one ship per level of shipyard.", "wiki" : "http://community.lacunaexpanse.com/wiki/shipyard" },\n        "/singularity" : { "description" : "Produces energy by pulling it from subspace.  This is the cleanest and most powerful form of energy in the universe. This is extremely expensive to build and requires a very high level University to construct.  The higher the building level the more energy is produced.", "wiki" : "http://community.lacunaexpanse.com/wiki/singularity-energy-plant" },\n        "/soup" : { "description" : "Converts beans from the Amalgus Bean Plantation at a minimal loss into soup to be used as food for your empire. The higher the level of the cannery the more soup is produced.", "wiki" : "http://community.lacunaexpanse.com/wiki/soup-cannery" },\n        "/spaceport" : { "description" : "Acts as the hangar and control tower for your ships.  Here is where you can monitor your ships that are in transit.  Be careful as the Space Port can only hold a limited number of ships, if there is no more room in the Space Port when a ship arrives or is built, it will be destroyed.  The Space Port can hold double its level in ships and queue its level in ships. ", "wiki" : "http://community.lacunaexpanse.com/wiki/space-port" },\n        "/stockpile" : { "description" : "Allows resource buildings to go above level 20. Provides storage.", "wiki" : "http://community.lacunaexpanse.com/wiki/stockpile" },\n        "/syrup" : { "description" : "Takes algae from the Algae Cropper and converts it in to Syrup with a small loss to be used as food.  The higher the level of the bottler the more food is produced.", "wiki" : "http://community.lacunaexpanse.com/wiki/syrup-bottler" },\n        "/thefttraining" : { "description" : "Trains spies in the art of appropriation. You may only construct 1 Theft Training Facility on a planet.", "wiki" : "http://community.lacunaexpanse.com/wiki/theft-training-facility" },\n        "/terraforminglab" : { "description" : "The Terraforming Lab is where research is done on the production of terraforming platform ships. Terraforming platform ships deploy into terraforming platforms which allows you to colonize planets your species wouldn\'t normally be capable of colonizing. The level of the building determines the level of the platform that is deployed from the ship.", "wiki" : "http://community.lacunaexpanse.com/wiki/terraforming-lab" },\n        "/terraformingplatform" : { "description" : "Increases the available build space on a planet that is not naturally inhabitable by your species.", "wiki" : "http://community.lacunaexpanse.com/wiki/terraforming-platform" },\n        "/trade" : { "description" : "Allows access to the interstellar market.  Through it you can set up trades for resources with other empires.  This building is a prerequisite to building cargo ships, which carry your trade goods, in the shipyard.  The higher the building level the more resources your cargo ships can carry.", "wiki" : "http://community.lacunaexpanse.com/wiki/trade-ministry" },\n        "/transporter" : { "description" : "Allows the instant transport of resources to a destination, but requires Essentia.  The transporter also allows conversion of resources through trading with the Lacunans.  The higher the building level the more goods can be transported.", "wiki" : "http://community.lacunaexpanse.com/wiki/subspace-transporter" },\n        "/university" : { "description" : "Is the key to growth for your empire.  Other buildings can not be upgraded higher than the university building level plus 1.  Your university\'s level is empire wide where construction level of buildings on other planets is concerned.  Many of the more powerful buildings that can be constructed require a very high level University.  The University is also a source of happiness for empire. ", "wiki" : "http://community.lacunaexpanse.com/wiki/university" },\n        "/wastedigester" : { "description" : "Converts waste into ore.  The higher the building level the more ore is produced and waste consumed.", "wiki" : "http://community.lacunaexpanse.com/wiki/waste-digester" },\n        "/wasteenergy" : { "description" : "Produces energy by burning your empire\'s waste.  Producing energy this way is far less efficient than other types of energy production, but the benefit is that waste is reduced.  The higher the building level the more energy is produced and waste consumed. In order to build and maintain the blast furnace you need a good supply of insulating ores such as zircon, beryl, and gypsum.", "wiki" : "http://community.lacunaexpanse.com/wiki/waste-energy-plant" },\n        "/wasterecycling" : { "description" : "Allows you to manually convert large batches of waste into energy, ore and water.  The more waste you convert, the longer it will take to make the resources you want.  The higher the level of the building the faster the conversion will take place.  You can also spend a small amount of Essentia to convert the waste instantly.", "wiki" : "http://community.lacunaexpanse.com/wiki/waste-recycling-center" },\n        "/wasteexchanger" : { "description" : "The Waste Exchanger is a combination of a waste recycling center, waste sequestration well, and a waste treatment center. It tears apart waste at a molecular level and recombines it into useful resources.", "wiki" : "http://community.lacunaexpanse.com/wiki/waste-exchanger" },\n        "/wastesequestration" : { "description" : "Stores waste.  Waste that is not stored turns into pollution and lowers your empire\'s happiness.  The higher the building level the more waste can be stored.", "wiki" : "http://community.lacunaexpanse.com/wiki/waste-sequestration-well" },\n        "/wastetreatment" : { "description" : "Converts waste into water, ore, and energy. Waste treatment requires special chemical compounds derived from halite, sulfur, and trona.", "wiki" : "http://community.lacunaexpanse.com/wiki/waste-treatment-center" },\n        "/waterproduction" : { "description" : "Converts energy and ore into water.  This is especially useful on planets with low concentrations of water.  A higher building level means more resources are converted.", "wiki" : "http://community.lacunaexpanse.com/wiki/water-production-plant" },\n        "/waterpurification" : { "description" : "Produces water from the planet\'s sources. The higher the building level the more water it can purify.", "wiki" : "http://community.lacunaexpanse.com/wiki/water-purification-plant" },\n        "/waterreclamation" : { "description" : "Converts waste into water.  A higher building level means more resources are converted.  If you don\'t have a good supply of halite or sulfur you cannot treat waste water.", "wiki" : "http://community.lacunaexpanse.com/wiki/water-reclamation-facility" },\n        "/waterstorage" : { "description" : "Stores the water you\'ve collected.  A higher building level allows more water to be stored.", "wiki" : "http://community.lacunaexpanse.com/wiki/water-storage-tank" },\n        "/wheat" : { "description" : "Allows you to grow wheat on your planet.  You can only grow wheat on planets that are in orbits 2, 3 or 4 (the goldilox zone).  The Farm will produce more wheat for each level it is increased. All plants need a source of phosphorus to photosynthesize their food. Therefore you need a good source of gypsum, sulfur, or monazite for plants to thrive.", "wiki" : "http://community.lacunaexpanse.com/wiki/wheat-farm" },\n        "/lcota" : { "description" : "A self contained city that produces all it\'s own resources and waste management. It also produces a lot extra for you to use to support your other infrastructure. Be sure to place it where all the plots around it are unoccupied, and on a planet where you have 9 available plots.", "wiki" : "http://community.lacunaexpanse.com/wiki/lost-city-of-tyleon" },\n        "/lcotb" : { "description" : "A self contained city that produces all it\'s own resources and waste management. It also produces a lot extra for you to use to support your other infrastructure.", "wiki" : "http://community.lacunaexpanse.com/wiki/lost-city-of-tyleon" },\n        "/lcotc" : { "description" : "A self contained city that produces all it\'s own resources and waste management. It also produces a lot extra for you to use to support your other infrastructure.", "wiki" : "http://community.lacunaexpanse.com/wiki/lost-city-of-tyleon" },\n        "/lcotd" : { "description" : "A self contained city that produces all it\'s own resources and waste management. It also produces a lot extra for you to use to support your other infrastructure.", "wiki" : "http://community.lacunaexpanse.com/wiki/lost-city-of-tyleon" },\n        "/lcote" : { "description" : "A self contained city that produces all it\'s own resources and waste management. It also produces a lot extra for you to use to support your other infrastructure.", "wiki" : "http://community.lacunaexpanse.com/wiki/lost-city-of-tyleon" },\n        "/lcotf" : { "description" : "A self contained city that produces all it\'s own resources and waste management. It also produces a lot extra for you to use to support your other infrastructure.", "wiki" : "http://community.lacunaexpanse.com/wiki/lost-city-of-tyleon" },\n        "/lcotg" : { "description" : "A self contained city that produces all it\'s own resources and waste management. It also produces a lot extra for you to use to support your other infrastructure.", "wiki" : "http://community.lacunaexpanse.com/wiki/lost-city-of-tyleon" },\n        "/lcoth" : { "description" : "A self contained city that produces all it\'s own resources and waste management. It also produces a lot extra for you to use to support your other infrastructure.", "wiki" : "http://community.lacunaexpanse.com/wiki/lost-city-of-tyleon" },\n        "/lcoti" : { "description" : "A self contained city that produces all it\'s own resources and waste management. It also produces a lot extra for you to use to support your other infrastructure.", "wiki" : "http://community.lacunaexpanse.com/wiki/lost-city-of-tyleon" }\n    },\n    "ships" : {\n        "stake" : { "description" : "Allows you to claim a planet prior to your colony ship arriving.", "wiki" : "http://community.lacunaexpanse.com/wiki/stake" },\n        "thud" : { "description" : "Temporarily destroys plots on a planet\'s surface.", "wiki" : "http://community.lacunaexpanse.com/wiki/thud" },\n        "sweeper" : { "description" : "An upgraded Fighter whose primary role is offense rather than defense.", "wiki" : "http://community.lacunaexpanse.com/wiki/sweeper" },\n        "supply_pod" : { "description" : "Creates temporary storage on a remote planet.", "wiki" : "http://community.lacunaexpanse.com/wiki/supply-pod" },\n        "supply_pod2" : { "description" : "A larger version of the Supply Pod.", "wiki" : "http://community.lacunaexpanse.com/wiki/supply-pod" },\n        "supply_pod3" : { "description" : "A very large version of the Supply Pod.", "wiki" : "http://community.lacunaexpanse.com/wiki/supply-pod" },\n        "supply_pod4" : { "description" : "A huge version of the Supply Pod.", "wiki" : "http://community.lacunaexpanse.com/wiki/supply-pod" },\n        "placebo" : { "description" : "Use to fake an attack on another player.", "wiki" : "http://community.lacunaexpanse.com/wiki/placebo" },\n        "placebo2" : { "description" : "A faster and more stealthed version of the Placebo.", "wiki" : "http://community.lacunaexpanse.com/wiki/placebo" },\n        "placebo3" : { "description" : "A faster and more stealthed version of the Placebo II.", "wiki" : "http://community.lacunaexpanse.com/wiki/placebo" },\n        "placebo4" : { "description" : "A faster and more stealthed version of the Placebo III.", "wiki" : "http://community.lacunaexpanse.com/wiki/placebo" },\n        "placebo5" : { "description" : "A faster and more stealthed version of the Placebo IV.", "wiki" : "http://community.lacunaexpanse.com/wiki/placebo" },\n        "placebo6" : { "description" : "A faster and more stealthed version of the Placebo V.", "wiki" : "http://community.lacunaexpanse.com/wiki/placebo" },\n        "probe" : { "description" : "Send to a star to allow you to view the bodies orbiting that star.", "wiki" : "http://community.lacunaexpanse.com/wiki/probe" },\n        "colony_ship" : { "description" : "Use to create a new colony for your empire.", "wiki" : "http://community.lacunaexpanse.com/wiki/colony-ship" },\n        "short_range_colony_ship" : { "description" : "Use to create a new colony for your empire. Very fast, but with a limited range. Useful within your own, or very close, star systems.", "wiki" : "http://community.lacunaexpanse.com/wiki/short-range-colony-ship" },\n        "spy_pod" : { "description" : "Stealthy one way transport for a spy.", "wiki" : "http://community.lacunaexpanse.com/wiki/spy-pod" },\n        "cargo_ship" : { "description" : "Medium transport ship. Can be used to push resources between your colonies, trade with other empires, or gather ore from mining platforms.", "wiki" : "http://community.lacunaexpanse.com/wiki/cargo-ship" },\n        "space_station" : { "description" : "The base hull upon which you can build space station modules to build a complete space station.", "wiki" : "http://community.lacunaexpanse.com/wiki/space-station" },\n        "smuggler_ship" : { "description" : "Stealthy transport ship. Can be used to push resources between your colonies, trade with other empires, or gather ore from mining platforms.", "wiki" : "http://community.lacunaexpanse.com/wiki/smuggler-ship" },\n        "mining_platform_ship" : { "description" : "Allows the gathering of resources from asteroids.", "wiki" : "http://community.lacunaexpanse.com/wiki/mining-platform-ship" },\n        "terraforming_platform_ship" : { "description" : "Allows you to settle planets your species could not normally colonize.", "wiki" : "http://community.lacunaexpanse.com/wiki/terraforming-platform-ship" },\n        "gas_giant_settlement_ship" : { "description" : "Allows you to settle gas giants.", "wiki" : "http://community.lacunaexpanse.com/wiki/gas-giant-settlement-ship" },\n        "scow" : { "description" : "Robotic waste transport ship. Can be used to dispose of waste in space.", "wiki" : "http://community.lacunaexpanse.com/wiki/scow" },\n        "scow_fast" : { "description" : "Much faster than a normal scow. Robotic waste transport ship. Can be used to dispose of waste in space.", "wiki" : "http://community.lacunaexpanse.com/wiki/scow" },\n        "scow_large" : { "description" : "Much larger and a bit slower than a normal scow. Robotic waste transport ship. Can be used to dispose of waste in space.", "wiki" : "http://community.lacunaexpanse.com/wiki/scow" },\n        "scow_mega" : { "description" : "Incredibly larger and slower than a normal scow. Almost useless as an attack. Robotic waste transport ship. Can be used to dispose of waste in space.", "wiki" : "http://community.lacunaexpanse.com/wiki/scow" },\n        "bleeder" : { "description" : "Robotic war ship. Once deployed on enemy planet, starts stealing resources and converting them into waste.", "wiki" : "http://community.lacunaexpanse.com/wiki/bleeder" },\n        "dory" : { "description" : "Small transport ship. Can be used to push resources between your colonies, trade with other empires, or gather ore from mining platforms.", "wiki" : "http://community.lacunaexpanse.com/wiki/dory" },\n        "barge" : { "description" : "Versatile transport ship. Can be used to push resources between your colonies, trade with other empires, or gather ore from mining platforms.", "wiki" : "http://community.lacunaexpanse.com/wiki/barge" },\n        "galleon" : { "description" : "Fast medium transport ship. Can be used to push resources between your colonies, trade with other empires, or gather ore from mining platforms.", "wiki" : "http://community.lacunaexpanse.com/wiki/galleon" },\n        "hulk" : { "description" : "Extra large transport ship. Can be used to push resources between your colonies, trade with other empires, or gather ore from mining platforms.", "wiki" : "http://community.lacunaexpanse.com/wiki/hulk" },\n        "hulk_fast" : { "description" : "Extra large transport ship slightly bigger and much faster than a Hulk. Can be used to push resources between your colonies, trade with other empires, or gather ore from mining platforms.", "wiki" : "http://community.lacunaexpanse.com/wiki/hulk" },\n        "hulk_huge" : { "description" : "Incredibly large and very slow transport ship, useful for supply chains. Can be used to push resources between your colonies, trade with other empires, or gather ore from mining platforms.", "wiki" : "http://community.lacunaexpanse.com/wiki/hulk" },\n        "fissure_sealer" : { "description" : "Large slow ship, used to attempt sealing fissures on uninhabited planets.", "wiki" : "http://community.lacunaexpanse.com/wiki/fissure-sealer" },\n        "freighter" : { "description" : "Large transport ship. Can be used to push resources between your colonies, trade with other empires, or gather ore from mining platforms.", "wiki" : "http://community.lacunaexpanse.com/wiki/freighter" },\n        "snark" : { "description" : "Robotic bombardment weapon, that can be used to destroy buildings on remote planets.", "wiki" : "http://community.lacunaexpanse.com/wiki/snark" },\n        "snark2" : { "description" : "An improved version of the Snark, which has a splash damage radius of 1.", "wiki" : "http://community.lacunaexpanse.com/wiki/snark" },\n        "snark3" : { "description" : "An improved version of the Snark, which has a splash damage radius of 2.", "wiki" : "http://community.lacunaexpanse.com/wiki/snark" },\n        "drone" : { "description" : "Single use robotic defense weapon, that can stop enemy attacks before they reach your planet.", "wiki" : "http://community.lacunaexpanse.com/wiki/drone" },\n        "fighter" : { "description" : "Piloted defense ship that can stop enemy attacks before they reach your planet. Can also be sent to defend other bodies.", "wiki" : "http://community.lacunaexpanse.com/wiki/fighter" },\n        "spy_shuttle" : { "description" : "Stealthy transport for up to four spies, that can orbit the target body waiting to pick the spies back up.", "wiki" : "http://community.lacunaexpanse.com/wiki/spy-shuttle" },\n        "observatory_seeker" : { "description" : "Variant of the Snark that attacks an Observatory.", "wiki" : "http://community.lacunaexpanse.com/wiki/observatory-seeker" },\n        "security_ministry_seeker" : { "description" : "Variant of the Snark that attacks a Security Ministry.", "wiki" : "http://community.lacunaexpanse.com/wiki/security-ministry-seeker" },\n        "spaceport_seeker" : { "description" : "Variant of the Snark that attacks a SpacePort.", "wiki" : "http://community.lacunaexpanse.com/wiki/spaceport-seeker" },\n        "excavator" : { "description" : "Robotic explorer that searches remote bodies looking for artifacts.", "wiki" : "http://community.lacunaexpanse.com/wiki/excavator" },\n        "detonator" : { "description" : "Variant of the Snark that detonates in an electromagnetic pulse, which can be used to destroy probes, mining platforms, or excavators.", "wiki" : "http://community.lacunaexpanse.com/wiki/detonator" },\n        "surveyor" : { "description" : "Robotic explorer that snaps a photograph of the surface of a remote planet, and also identifies the buildings in the photograph.", "wiki" : "http://community.lacunaexpanse.com/wiki/surveyor" },\n        "scanner" : { "description" : "Robotic explorer that snaps a photograph of the surface of a remote planet.", "wiki" : "http://community.lacunaexpanse.com/wiki/scanner" }\n    },\n    "tips" : [\n        "Water Purification Plants are cheap, but slow. If you can afford them, Water Production Plants produce more water.",\n        "You need at least 3 food types to keep your people happy.",\n        "Building a Development Ministry will let you queue multiple buildings at once.",\n        "Buildings are built in series. So if you already have a building upgrading that will take 20 minutes, and you add a building that takes 15 seconds, the second building will take 20:15.",\n        "Buildings have both a cost and an upkeep. Cost is what it costs to build/upgrade the building. Upkeep is what it costs per hour to run the building.",\n        "If you have at least 4 food types, every time you build something you\'ll gain happiness.",\n        "You can use Essentia in the Development Ministry to auto-complete your entire build queue.",\n        "If your waste overflows it will create pollution, and that will make your people unhappy.",\n        "A good build strategy is to upgrade your storage first, then your resource generators, then your University.",\n        "Try to make sure your resource production will completely fill your available storage at least once per day.",\n        "If you run out of resources, your people will not be happy.",\n        "Construction and upgrades produce bulk waste all at once. Be sure you can store it, or the pollution it generates will make your citizens unhappy.",\n        "Though the planet map shows 121 spaces for buildings, each planet is limited to a certain number of plots. You can see how many plots are remaining in the Planetary Command Center.",\n        "In order to manage waste or recycle it, you must first store it. Build a Waste Sequestration Well to store waste.",\n        "Waste can be a very valuable resource. Build waste management buildings like Waste Reclamation, Waste Treatement, or Waste Digesters to turn it into useful resources.",\n        "You can use Essentia in the Waste Recycling Plant to instantly complete the recycling process.",\n        "We recommend at least 2 of each type of storage on every planet.",\n        "If you invite your friends to the game, and a few of them sign up, you\'ll start getting special buildings as rewards.",\n        "You can use Essentia in the Shipyard to auto-complete your entire build queue.",\n        "Knowledge gained from the University is permanent. Even if you demolish the University you still have the knowledge.",\n        "While you are waiting for your building upgrades to complete, build and send out probes to see what\'s around you.",\n        "Building an Oversight Ministry will speed up all of your building build/upgrade times.",\n        "You can win free Essentia in the Lottery at the Entertainment District.",\n        "Both the cost and production of buildings rise expontentially. Production rises slightly slower than cost however.",\n        "As an isolationist you are immune to attack. You are no longer an isolationist if you colonize a second planet, or build an Espionage Ministry or Munitions Lab.",\n        "Most ships are one use only, meaning once you send them you cannot get them back. Exceptions to this are trade ships like Dories and Cargo Ships.",\n        "Looking to the future you may want to upgrade your existing energy plants with newer technology as it becomes available.",\n        "You can use Essentia in the Intelligence Ministry to train spies instantly.",\n        "It costs 100,000 happiness to colonize your second planet, but it gets much more difficult for each subsequent colony.",\n        "You can use Essentia in the Park to speed along parties.",\n        "The University is global. The level of University you built on one planet affects all your planets. The University is the only building that has this ability.",\n        "As soon as a colony ship arrives at a new planet it begins functioning. Be prepared to deal with it when the ship arrives.",\n        "When choosing a planet to colonize things to consider are its size, distance from your other colonies, distance from asteroids, ore composition, and water composition.",\n        "Make sure you have some dories available when you colonize a planet so you can ship resources to the new colony to give it a head start.",\n        "You can use Essentia in the Subspace Transporter to do instant 1:1 trades of any resource.",\n        "Spies are the primary form of combat in the game. Send spies to other people\'s planets and you\'ll be able to gather information, sabotage infastructure, and steal resources from them.",\n        "Though you can lose colonies to spies, you cannot ever lose your home planet.",\n        "Some ores are only found in abundance on asteroids.",\n        "Resource buildings can only go to level 20, while all other buildings can go to level 30.",\n        "Glyphs enable you to build incredibly powerful buildings that aren\'t part of the normal technology tree.",\n        "You can use Essentia in the Archaeology Ministry to search for glyphs instantly.",\n        "Drones, Fighters, and Sweepers defend your planet from other player\'s ships.",\n        "Spies defend your planet from other player\'s spies.",\n        "Glyph buildings take up no plots.",\n        "Higher level Spaceports can tell you more information about ships that are coming in from other players.",\n        "A higher level Security Ministry increases the chance of catching enemy spies as they come and go from your planet.",\n        "A higher level Security Ministry allows you to see more detail about the enemy spies that are on your planet.",\n        "You can make a new planet your home planet by building a Capitol building."\n    ],\n    "writ_templates" : [\n        { "title" : "Non-Agression Mandate", "description" : "Planets in this jurisdiction may not attack anyone inside the jurisdiction." },\n        { "title" : "No Munitions", "description" : "Planets in this jurisdiction, except for members of ______ alliance are not allowed to build a Munitions Lab. If you are found with one the penalty shall be _______." },\n        { "title" : "No Operatives", "description" : "Planets in this jurisdiction, except for members of ______ alliance are not allowed to build an Espionage Ministry. If you are found with one the penalty shall be _______." },\n        { "title" : "Defense Mandate", "description" : "Planets in this jurisdiction are required to come to the aid of the other planets in this jurisdiction when under attack from both foreign and domestic enemies." },\n        { "title" : "Confederacy with ______", "description" : "_______ alliance declares a mutual confederation with _______ alliance." },\n        { "title" : "NAP with ______", "description" : "_______ alliance declares a non-aggression pact with _______ alliance." },\n        { "title" : "Declaration of War", "description" : "_______ alliance declares war on ______ alliance. All citizens in this jurisdiction are required to supply the war effort with all available ships, operatives, and aid packages." },\n        { "title" : "Censure of ______", "description" : "We, the members of _______ alliance, hereby declare a formal reprimand of _______ for __________________." },\n        { "title" : "Glyph Heresy", "description" : "_______ alliance hereby denounces the existence of the Great Race. Anyone in our jurisdiction found using glyph technology shall be treated cruelly and without mercy." }\n    ]\n}\n\n'
p30
sS'encoding'
p31
NsS'url'
p32
Vhttps://us1.lacunaexpanse.com/resources.json
p33
sS'status_code'
p34
I200
sS'request'
p35
g0
(crequests.models
PreparedRequest
p36
g2
Ntp37
Rp38
(dp39
S'body'
p40
Nsg32
S'https://us1.lacunaexpanse.com/resources.json'
p41
sS'hooks'
p42
(dp43
S'response'
p44
(lp45
ssS'headers'
p46
g0
(crequests.structures
CaseInsensitiveDict
p47
g2
Ntp48
Rp49
(dp50
S'_store'
p51
(dp52
S'connection'
p53
(S'Connection'
p54
S'keep-alive'
p55
tp56
sS'accept-encoding'
p57
(S'Accept-Encoding'
p58
S'gzip, deflate'
p59
tp60
sS'accept'
p61
(S'Accept'
p62
S'*/*'
p63
tp64
sS'user-agent'
p65
(S'User-Agent'
p66
S'python-requests/2.7.0 CPython/2.7.3 Linux/3.2.0-64-generic'
p67
tp68
ssbsg27
g0
(g7
g2
Ntp69
Rp70
(dp71
g11
I1435539166
sg12
(icookielib
DefaultCookiePolicy
p72
(dp73
g15
I01
sg16
I0
sg17
Nsg18
Nsg19
I00
sg20
I00
sg11
I1435539166
sg21
I00
sg22
I00
sg23
I00
sg24
I00
sg25
(tsg26
I01
sbsg27
(dp74
sbsS'method'
p75
S'GET'
p76
sbsS'elapsed'
p77
cdatetime
timedelta
p78
(I0
I0
I741446
tp79
Rp80
sg46
g0
(g47
g2
Ntp81
Rp82
(dp83
g51
(dp84
S'content-length'
p85
(S'content-length'
p86
S'57690'
p87
tp88
sS'accept-ranges'
p89
(S'accept-ranges'
p90
S'bytes'
p91
tp92
sS'expires'
p93
(S'expires'
p94
S'Tue, 30 Jun 2015 00:52:47 GMT'
p95
tp96
sS'keep-alive'
p97
(S'keep-alive'
p98
S'timeout=60'
p99
tp100
sS'server'
p101
(S'server'
p102
S'nginx'
p103
tp104
sS'last-modified'
p105
(S'last-modified'
p106
S'Wed, 09 Apr 2014 22:09:22 GMT'
p107
tp108
sS'connection'
p109
(S'connection'
p110
S'keep-alive'
p111
tp112
sS'cache-control'
p113
(S'cache-control'
p114
S'max-age=86400, must-revalidate'
p115
tp116
sS'date'
p117
(S'date'
p118
S'Mon, 29 Jun 2015 00:52:47 GMT'
p119
tp120
sS'content-type'
p121
(S'content-type'
p122
S'application/octet-stream'
p123
tp124
ssbsS'reason'
p125
S'OK'
p126
sS'history'
p127
(lp128
sb.